target datalayout = "e-m:e-p270:32:32-p271:32:32-p272:64:64-i64:64-i128:128-f80:128-n8:16:32:64-S128"
target triple = "x86_64-pc-linux-gnu"

%struct.BackgroundWorker = type { [96 x i8], [96 x i8], i32, i32, i32, [1024 x i8], [96 x i8], i64, [128 x i8], i32 }

@max_logical_replication_workers = dso_local global i32 4, align 4
@.str.7 = private unnamed_addr constant [9 x i8] c"postgres\00", align 1
@IsBinaryUpgrade = external global i8, align 1
@.str.22 = private unnamed_addr constant [18 x i8] c"ApplyLauncherMain\00", align 1
@.str.23 = private unnamed_addr constant [29 x i8] c"logical replication launcher\00", align 1

; Function Attrs: nounwind uwtable
define dso_local void @ApplyLauncherRegister() #0 {
  %1 = alloca %struct.BackgroundWorker, align 8
  %2 = alloca i32, align 4
  call void @llvm.lifetime.start.p0(i64 1472, ptr %1) #9
  %3 = load i32, ptr @max_logical_replication_workers, align 4
  %4 = icmp eq i32 %3, 0
  br i1 %4, label %8, label %5

5:                                                ; preds = %0
  %6 = load i8, ptr @IsBinaryUpgrade, align 1, !range !4, !noundef !5
  %7 = trunc i8 %6 to i1
  br i1 %7, label %8, label %9

8:                                                ; preds = %5, %0
  store i32 1, ptr %2, align 4
  br label %27

9:                                                ; preds = %5
  call void @llvm.memset.p0.i64(ptr align 8 %1, i8 0, i64 1472, i1 false)
  %10 = getelementptr inbounds nuw %struct.BackgroundWorker, ptr %1, i32 0, i32 2
  store i32 3, ptr %10, align 8
  %11 = getelementptr inbounds nuw %struct.BackgroundWorker, ptr %1, i32 0, i32 3
  store i32 2, ptr %11, align 4
  %12 = getelementptr inbounds nuw %struct.BackgroundWorker, ptr %1, i32 0, i32 5
  %13 = getelementptr inbounds [1024 x i8], ptr %12, i64 0, i64 0
  %14 = call i32 (ptr, i64, ptr, ...) @pg_snprintf(ptr noundef %13, i64 noundef 1024, ptr noundef @.str.7)
  %15 = getelementptr inbounds nuw %struct.BackgroundWorker, ptr %1, i32 0, i32 6
  %16 = getelementptr inbounds [96 x i8], ptr %15, i64 0, i64 0
  %17 = call i32 (ptr, i64, ptr, ...) @pg_snprintf(ptr noundef %16, i64 noundef 96, ptr noundef @.str.22)
  %18 = getelementptr inbounds nuw %struct.BackgroundWorker, ptr %1, i32 0, i32 0
  %19 = getelementptr inbounds [96 x i8], ptr %18, i64 0, i64 0
  %20 = call i32 (ptr, i64, ptr, ...) @pg_snprintf(ptr noundef %19, i64 noundef 96, ptr noundef @.str.23)
  %21 = getelementptr inbounds nuw %struct.BackgroundWorker, ptr %1, i32 0, i32 1
  %22 = getelementptr inbounds [96 x i8], ptr %21, i64 0, i64 0
  %23 = call i32 (ptr, i64, ptr, ...) @pg_snprintf(ptr noundef %22, i64 noundef 96, ptr noundef @.str.23)
  %24 = getelementptr inbounds nuw %struct.BackgroundWorker, ptr %1, i32 0, i32 4
  store i32 5, ptr %24, align 8
  %25 = getelementptr inbounds nuw %struct.BackgroundWorker, ptr %1, i32 0, i32 9
  store i32 0, ptr %25, align 8
  %26 = getelementptr inbounds nuw %struct.BackgroundWorker, ptr %1, i32 0, i32 7
  store i64 0, ptr %26, align 8
  call void @RegisterBackgroundWorker(ptr noundef %1)
  store i32 0, ptr %2, align 4
  br label %27

27:                                               ; preds = %9, %8
  call void @llvm.lifetime.end.p0(i64 1472, ptr %1) #9
  %28 = load i32, ptr %2, align 4
  switch i32 %28, label %30 [
    i32 0, label %29
    i32 1, label %29
  ]

29:                                               ; preds = %27, %27
  ret void

30:                                               ; preds = %27
  unreachable
}