; Function Attrs: nounwind uwtable
define dso_local void @ApplyLauncherRegister() local_unnamed_addr #2 {
  %1 = alloca %struct.BackgroundWorker, align 8
  call void @llvm.lifetime.start.p0(i64 1472, ptr nonnull %1) #13
  %2 = load i32, ptr @max_logical_replication_workers, align 4
  %3 = icmp eq i32 %2, 0
  br i1 %3, label %20, label %4

4:                                                ; preds = %0
  %5 = load i8, ptr @IsBinaryUpgrade, align 1, !range !4, !noundef !5
  %6 = trunc nuw i8 %5 to i1
  br i1 %6, label %20, label %7

7:                                                ; preds = %4
  call void @llvm.memset.p0.i64(ptr noundef nonnull align 8 dereferenceable(1472) %1, i8 0, i64 1472, i1 false)
  %8 = getelementptr inbounds nuw i8, ptr %1, i64 192
  store i32 3, ptr %8, align 8
  %9 = getelementptr inbounds nuw i8, ptr %1, i64 196
  store i32 2, ptr %9, align 4
  %10 = getelementptr inbounds nuw i8, ptr %1, i64 204
  %11 = call i32 (ptr, i64, ptr, ...) @pg_snprintf(ptr noundef nonnull %10, i64 noundef 1024, ptr noundef nonnull @.str.7) #13
  %12 = getelementptr inbounds nuw i8, ptr %1, i64 1228
  %13 = call i32 (ptr, i64, ptr, ...) @pg_snprintf(ptr noundef nonnull %12, i64 noundef 96, ptr noundef nonnull @.str.22) #13
  %14 = call i32 (ptr, i64, ptr, ...) @pg_snprintf(ptr noundef nonnull %1, i64 noundef 96, ptr noundef nonnull @.str.23) #13
  %15 = getelementptr inbounds nuw i8, ptr %1, i64 96
  %16 = call i32 (ptr, i64, ptr, ...) @pg_snprintf(ptr noundef nonnull %15, i64 noundef 96, ptr noundef nonnull @.str.23) #13
  %17 = getelementptr inbounds nuw i8, ptr %1, i64 200
  store i32 5, ptr %17, align 8
  %18 = getelementptr inbounds nuw i8, ptr %1, i64 1464
  store i32 0, ptr %18, align 8
  %19 = getelementptr inbounds nuw i8, ptr %1, i64 1328
  store i64 0, ptr %19, align 8
  call void @RegisterBackgroundWorker(ptr noundef nonnull %1) #13
  br label %20

20:                                               ; preds = %0, %4, %7
  call void @llvm.lifetime.end.p0(i64 1472, ptr nonnull %1) #13
  ret void
}